target datalayout = "e-m:e-p270:32:32-p271:32:32-p272:64:64-i64:64-i128:128-f80:128-n8:16:32:64-S128"
target triple = "x86_64-pc-linux-gnu"

@ett_btatt_list = internal global i32 0, align 4
@.str.3259 = private unnamed_addr constant [32 x i8] c": %04u-%02u-%02u %02u:%02u:%02u\00", align 1

; Function Attrs: null_pointer_is_valid sspstrong uwtable
define internal i32 @add_item_btatt_timestamp(ptr noundef %0, i32 noundef %1, ptr noundef %2, i32 noundef %3) #0 {
  %5 = alloca ptr, align 8
  %6 = alloca i32, align 4
  %7 = alloca ptr, align 8
  %8 = alloca i32, align 4
  %9 = alloca ptr, align 8
  %10 = alloca ptr, align 8
  store ptr %0, ptr %5, align 8
  store i32 %1, ptr %6, align 4
  store ptr %2, ptr %7, align 8
  store i32 %3, ptr %8, align 4
  call void @llvm.lifetime.start.p0(i64 8, ptr %9) #12
  call void @llvm.lifetime.start.p0(i64 8, ptr %10) #12
  %11 = load ptr, ptr %5, align 8
  %12 = load i32, ptr %6, align 4
  %13 = load ptr, ptr %7, align 8
  %14 = load i32, ptr %8, align 4
  %15 = call ptr @proto_tree_add_item(ptr noundef %11, i32 noundef %12, ptr noundef %13, i32 noundef %14, i32 noundef 7, i32 noundef 0)
  store ptr %15, ptr %9, align 8
  %16 = load ptr, ptr %9, align 8
  %17 = load i32, ptr @ett_btatt_list, align 4
  %18 = call ptr @proto_item_add_subtree(ptr noundef %16, i32 noundef %17)
  store ptr %18, ptr %10, align 8
  %19 = load ptr, ptr %9, align 8
  %20 = load ptr, ptr %7, align 8
  %21 = load i32, ptr %8, align 4
  %22 = call zeroext i16 @tvb_get_uint16(ptr noundef %20, i32 noundef %21, i32 noundef -2147483648)
  %23 = zext i16 %22 to i32
  %24 = load ptr, ptr %7, align 8
  %25 = load i32, ptr %8, align 4
  %26 = add i32 %25, 2
  %27 = call zeroext i8 @tvb_get_uint8(ptr noundef %24, i32 noundef %26)
  %28 = zext i8 %27 to i32
  %29 = load ptr, ptr %7, align 8
  %30 = load i32, ptr %8, align 4
  %31 = add i32 %30, 3
  %32 = call zeroext i8 @tvb_get_uint8(ptr noundef %29, i32 noundef %31)
  %33 = zext i8 %32 to i32
  %34 = load ptr, ptr %7, align 8
  %35 = load i32, ptr %8, align 4
  %36 = add i32 %35, 4
  %37 = call zeroext i8 @tvb_get_uint8(ptr noundef %34, i32 noundef %36)
  %38 = zext i8 %37 to i32
  %39 = load ptr, ptr %7, align 8
  %40 = load i32, ptr %8, align 4
  %41 = add i32 %40, 5
  %42 = call zeroext i8 @tvb_get_uint8(ptr noundef %39, i32 noundef %41)
  %43 = zext i8 %42 to i32
  %44 = load ptr, ptr %7, align 8
  %45 = load i32, ptr %8, align 4
  %46 = add i32 %45, 6
  %47 = call zeroext i8 @tvb_get_uint8(ptr noundef %44, i32 noundef %46)
  %48 = zext i8 %47 to i32
  call void (ptr, ptr, ...) @proto_item_append_text(ptr noundef %19, ptr noundef @.str.3259, i32 noundef %23, i32 noundef %28, i32 noundef %33, i32 noundef %38, i32 noundef %43, i32 noundef %48)
  %49 = load ptr, ptr %10, align 8
  %50 = load ptr, ptr %7, align 8
  %51 = load i32, ptr %8, align 4
  %52 = call i32 @add_item_btatt_time(ptr noundef %49, ptr noundef %50, i32 noundef %51)
  call void @llvm.lifetime.end.p0(i64 8, ptr %10) #12
  call void @llvm.lifetime.end.p0(i64 8, ptr %9) #12
  ret i32 %52
}