; Function Attrs: null_pointer_is_valid sspstrong uwtable
define internal fastcc noundef i32 @add_item_btatt_timestamp(ptr noundef %0, i32 noundef %1, ptr noundef %2, i32 noundef %3) unnamed_addr #1 {
  %5 = tail call ptr @proto_tree_add_item(ptr noundef %0, i32 noundef %1, ptr noundef %2, i32 noundef %3, i32 noundef 7, i32 noundef 0)
  %6 = load i32, ptr @ett_btatt_list, align 4
  %7 = tail call ptr @proto_item_add_subtree(ptr noundef %5, i32 noundef %6)
  %8 = tail call zeroext i16 @tvb_get_uint16(ptr noundef %2, i32 noundef %3, i32 noundef -2147483648)
  %9 = zext i16 %8 to i32
  %10 = add i32 %3, 2
  %11 = tail call zeroext i8 @tvb_get_uint8(ptr noundef %2, i32 noundef %10)
  %12 = zext i8 %11 to i32
  %13 = add i32 %3, 3
  %14 = tail call zeroext i8 @tvb_get_uint8(ptr noundef %2, i32 noundef %13)
  %15 = zext i8 %14 to i32
  %16 = add i32 %3, 4
  %17 = tail call zeroext i8 @tvb_get_uint8(ptr noundef %2, i32 noundef %16)
  %18 = zext i8 %17 to i32
  %19 = add i32 %3, 5
  %20 = tail call zeroext i8 @tvb_get_uint8(ptr noundef %2, i32 noundef %19)
  %21 = zext i8 %20 to i32
  %22 = add i32 %3, 6
  %23 = tail call zeroext i8 @tvb_get_uint8(ptr noundef %2, i32 noundef %22)
  %24 = zext i8 %23 to i32
  tail call void (ptr, ptr, ...) @proto_item_append_text(ptr noundef %5, ptr noundef nonnull @.str.3259, i32 noundef %9, i32 noundef %12, i32 noundef %15, i32 noundef %18, i32 noundef %21, i32 noundef %24)
  %25 = tail call fastcc i32 @add_item_btatt_time(ptr noundef %7, ptr noundef %2, i32 noundef %3)
  ret i32 %25
}